target datalayout = "e-m:e-p270:32:32-p271:32:32-p272:64:64-i64:64-i128:128-f80:128-n8:16:32:64-S128"
target triple = "x86_64-pc-linux-gnu"

%struct.pac_s = type { %struct.pai_s, %struct.ecache_s, %struct.ecache_s, %struct.ecache_s, ptr, ptr, ptr, %struct.exp_grow_s, %struct.malloc_mutex_s, %struct.san_bump_alloc_s, %struct.atomic_zu_t, %struct.decay_s, %struct.decay_s, ptr, ptr, %struct.atomic_zu_t }
%struct.pai_s = type { ptr, ptr, ptr, ptr, ptr, ptr, ptr }
%struct.ecache_s = type { %struct.malloc_mutex_s, %struct.eset_s, %struct.eset_s, i32, i32, i8 }
%struct.eset_s = type { [4 x i64], [200 x %struct.eset_bin_s], [200 x %struct.eset_bin_stats_s], %struct.edata_list_inactive_t, %struct.atomic_zu_t, i32 }
%struct.eset_bin_s = type { %struct.edata_heap_t, %struct.edata_cmp_summary_s }
%struct.edata_heap_t = type { %struct.ph_s }
%struct.ph_s = type { ptr, i64 }
%struct.edata_cmp_summary_s = type { i64, i64 }
%struct.eset_bin_stats_s = type { %struct.atomic_zu_t, %struct.atomic_zu_t }
%struct.edata_list_inactive_t = type { %struct.anon.1 }
%struct.anon.1 = type { ptr }
%struct.exp_grow_s = type { i32, i32 }
%struct.malloc_mutex_s = type { %union.anon }
%union.anon = type { %struct.anon }
%struct.anon = type { %struct.mutex_prof_data_t, %union.pthread_mutex_t, %struct.atomic_b_t }
%struct.mutex_prof_data_t = type { %struct.nstime_t, %struct.nstime_t, i64, i64, i32, %struct.atomic_u32_t, i64, ptr, i64 }
%struct.nstime_t = type { i64 }
%struct.atomic_u32_t = type { i32 }
%union.pthread_mutex_t = type { %struct.__pthread_mutex_s }
%struct.__pthread_mutex_s = type { i32, i32, i32, i32, i32, i16, i16, %struct.__pthread_internal_list }
%struct.__pthread_internal_list = type { ptr, ptr }
%struct.atomic_b_t = type { i8 }
%struct.san_bump_alloc_s = type { %struct.malloc_mutex_s, ptr }
%struct.decay_s = type { %struct.malloc_mutex_s, i8, %struct.atomic_zd_t, %struct.nstime_t, %struct.nstime_t, i64, %struct.nstime_t, i64, i64, [200 x i64], i64 }
%struct.atomic_zd_t = type { i64 }
%struct.atomic_zu_t = type { i64 }
%struct.ehooks_s = type { i32, %struct.atomic_p_t }
%struct.atomic_p_t = type { ptr }
%struct.pac_stats_s = type { %struct.pac_decay_stats_s, %struct.pac_decay_stats_s, i64, %struct.atomic_zu_t, %struct.atomic_zu_t }
%struct.pac_decay_stats_s = type { %struct.locked_u64_s, %struct.locked_u64_s, %struct.locked_u64_s }
%struct.locked_u64_s = type { %struct.atomic_u64_t }
%struct.atomic_u64_t = type { i64 }
%struct.extent_hooks_s = type { ptr, ptr, ptr, ptr, ptr, ptr, ptr, ptr, ptr }

; Function Attrs: alwaysinline nounwind uwtable
define internal ptr @atomic_load_p(ptr noundef %0, i32 noundef %1) #4 {
  %3 = alloca ptr, align 8
  %4 = alloca i32, align 4
  %5 = alloca ptr, align 8
  store ptr %0, ptr %3, align 8, !tbaa !17
  store i32 %1, ptr %4, align 4, !tbaa !24
  call void @llvm.lifetime.start.p0(i64 8, ptr %5) #8
  %6 = load ptr, ptr %3, align 8, !tbaa !17
  %7 = getelementptr inbounds nuw %struct.atomic_p_t, ptr %6, i32 0, i32 0
  %8 = load i32, ptr %4, align 4, !tbaa !24
  %9 = call i32 @atomic_enum_to_builtin(i32 noundef %8)
  switch i32 %9, label %10 [
    i32 1, label %12
    i32 2, label %12
    i32 5, label %14
  ]

10:                                               ; preds = %2
  %11 = load atomic i64, ptr %7 monotonic, align 8
  store i64 %11, ptr %5, align 8
  br label %16

12:                                               ; preds = %2, %2
  %13 = load atomic i64, ptr %7 acquire, align 8
  store i64 %13, ptr %5, align 8
  br label %16

14:                                               ; preds = %2
  %15 = load atomic i64, ptr %7 seq_cst, align 8
  store i64 %15, ptr %5, align 8
  br label %16

16:                                               ; preds = %14, %12, %10
  %17 = load ptr, ptr %5, align 8, !tbaa !17
  call void @llvm.lifetime.end.p0(i64 8, ptr %5) #8
  ret ptr %17
}

; Function Attrs: alwaysinline nounwind uwtable
define internal i32 @atomic_enum_to_builtin(i32 noundef %0) #4 {
  %2 = alloca i32, align 4
  %3 = alloca i32, align 4
  store i32 %0, ptr %3, align 4, !tbaa !24
  %4 = load i32, ptr %3, align 4, !tbaa !24
  switch i32 %4, label %10 [
    i32 0, label %5
    i32 1, label %6
    i32 2, label %7
    i32 3, label %8
    i32 4, label %9
  ]

5:                                                ; preds = %1
  store i32 0, ptr %2, align 4
  br label %12

6:                                                ; preds = %1
  store i32 2, ptr %2, align 4
  br label %12

7:                                                ; preds = %1
  store i32 3, ptr %2, align 4
  br label %12

8:                                                ; preds = %1
  store i32 4, ptr %2, align 4
  br label %12

9:                                                ; preds = %1
  store i32 5, ptr %2, align 4
  br label %12

10:                                               ; preds = %1
  br label %11

11:                                               ; preds = %10
  unreachable

12:                                               ; preds = %5, %6, %7, %8, %9
  %13 = load i32, ptr %2, align 4
  ret i32 %13
}

; Function Attrs: inlinehint nounwind uwtable
define internal ptr @ehooks_get_extent_hooks_ptr(ptr noundef %0) #2 {
  %2 = alloca ptr, align 8
  store ptr %0, ptr %2, align 8, !tbaa !61
  %3 = load ptr, ptr %2, align 8, !tbaa !61
  %4 = getelementptr inbounds nuw %struct.ehooks_s, ptr %3, i32 0, i32 1
  %5 = call ptr @atomic_load_p(ptr noundef %4, i32 noundef 1)
  ret ptr %5
}

; Function Attrs: alwaysinline nounwind uwtable
define internal i64 @atomic_fetch_add_zu(ptr noundef %0, i64 noundef %1, i32 noundef %2) #4 {
  %4 = alloca ptr, align 8
  %5 = alloca i64, align 8
  %6 = alloca i32, align 4
  %7 = alloca i64, align 8
  %8 = alloca i64, align 8
  store ptr %0, ptr %4, align 8, !tbaa !17
  store i64 %1, ptr %5, align 8, !tbaa !18
  store i32 %2, ptr %6, align 4, !tbaa !24
  %9 = load ptr, ptr %4, align 8, !tbaa !17
  %10 = getelementptr inbounds nuw %struct.atomic_zu_t, ptr %9, i32 0, i32 0
  %11 = load i32, ptr %6, align 4, !tbaa !24
  %12 = call i32 @atomic_enum_to_builtin(i32 noundef %11)
  %13 = load i64, ptr %5, align 8, !tbaa !18
  store i64 %13, ptr %7, align 8, !tbaa !18
  switch i32 %12, label %14 [
    i32 1, label %17
    i32 2, label %17
    i32 3, label %20
    i32 4, label %23
    i32 5, label %26
  ]

14:                                               ; preds = %3
  %15 = load i64, ptr %7, align 8
  %16 = atomicrmw add ptr %10, i64 %15 monotonic, align 8
  store i64 %16, ptr %8, align 8
  br label %29

17:                                               ; preds = %3, %3
  %18 = load i64, ptr %7, align 8
  %19 = atomicrmw add ptr %10, i64 %18 acquire, align 8
  store i64 %19, ptr %8, align 8
  br label %29

20:                                               ; preds = %3
  %21 = load i64, ptr %7, align 8
  %22 = atomicrmw add ptr %10, i64 %21 release, align 8
  store i64 %22, ptr %8, align 8
  br label %29

23:                                               ; preds = %3
  %24 = load i64, ptr %7, align 8
  %25 = atomicrmw add ptr %10, i64 %24 acq_rel, align 8
  store i64 %25, ptr %8, align 8
  br label %29

26:                                               ; preds = %3
  %27 = load i64, ptr %7, align 8
  %28 = atomicrmw add ptr %10, i64 %27 seq_cst, align 8
  store i64 %28, ptr %8, align 8
  br label %29

29:                                               ; preds = %26, %23, %20, %17, %14
  %30 = load i64, ptr %8, align 8, !tbaa !18
  ret i64 %30
}

; Function Attrs: inlinehint nounwind uwtable
define internal zeroext i1 @ehooks_merge_will_fail(ptr noundef %0) #2 {
  %2 = alloca ptr, align 8
  store ptr %0, ptr %2, align 8, !tbaa !61
  %3 = load ptr, ptr %2, align 8, !tbaa !61
  %4 = call ptr @ehooks_get_extent_hooks_ptr(ptr noundef %3)
  %5 = getelementptr inbounds nuw %struct.extent_hooks_s, ptr %4, i32 0, i32 8
  %6 = load ptr, ptr %5, align 8, !tbaa !86
  %7 = icmp eq ptr %6, null
  ret i1 %7
}

; Function Attrs: inlinehint nounwind uwtable
define internal ptr @pac_ehooks_get(ptr noundef %0) #2 {
  %2 = alloca ptr, align 8
  store ptr %0, ptr %2, align 8, !tbaa !9
  %3 = load ptr, ptr %2, align 8, !tbaa !9
  %4 = getelementptr inbounds nuw %struct.pac_s, ptr %3, i32 0, i32 4
  %5 = load ptr, ptr %4, align 8, !tbaa !26
  %6 = call ptr @je_base_ehooks_get(ptr noundef %5)
  ret ptr %6
}

; Function Attrs: nounwind uwtable
define internal zeroext i1 @pac_expand_impl(ptr noundef %0, ptr noundef %1, ptr noundef %2, i64 noundef %3, i64 noundef %4, i1 noundef zeroext %5, ptr noundef %6) #0 {
  %8 = alloca i1, align 1
  %9 = alloca ptr, align 8
  %10 = alloca ptr, align 8
  %11 = alloca ptr, align 8
  %12 = alloca i64, align 8
  %13 = alloca i64, align 8
  %14 = alloca i8, align 1
  %15 = alloca ptr, align 8
  %16 = alloca ptr, align 8
  %17 = alloca ptr, align 8
  %18 = alloca i64, align 8
  %19 = alloca i64, align 8
  %20 = alloca i32, align 4
  %21 = alloca ptr, align 8
  store ptr %0, ptr %9, align 8, !tbaa !4
  store ptr %1, ptr %10, align 8, !tbaa !57
  store ptr %2, ptr %11, align 8, !tbaa !63
  store i64 %3, ptr %12, align 8, !tbaa !18
  store i64 %4, ptr %13, align 8, !tbaa !18
  %22 = zext i1 %5 to i8
  store i8 %22, ptr %14, align 1, !tbaa !53
  store ptr %6, ptr %15, align 8, !tbaa !59
  call void @llvm.lifetime.start.p0(i64 8, ptr %16) #8
  %23 = load ptr, ptr %10, align 8, !tbaa !57
  store ptr %23, ptr %16, align 8, !tbaa !9
  call void @llvm.lifetime.start.p0(i64 8, ptr %17) #8
  %24 = load ptr, ptr %16, align 8, !tbaa !9
  %25 = call ptr @pac_ehooks_get(ptr noundef %24)
  store ptr %25, ptr %17, align 8, !tbaa !61
  call void @llvm.lifetime.start.p0(i64 8, ptr %18) #8
  store i64 0, ptr %18, align 8, !tbaa !18
  call void @llvm.lifetime.start.p0(i64 8, ptr %19) #8
  %26 = load i64, ptr %13, align 8, !tbaa !18
  %27 = load i64, ptr %12, align 8, !tbaa !18
  %28 = sub i64 %26, %27
  store i64 %28, ptr %19, align 8, !tbaa !18
  %29 = load ptr, ptr %17, align 8, !tbaa !61
  %30 = call zeroext i1 @ehooks_merge_will_fail(ptr noundef %29)
  br i1 %30, label %31, label %32

31:                                               ; preds = %7
  store i1 true, ptr %8, align 1
  store i32 1, ptr %20, align 4
  br label %99

32:                                               ; preds = %7
  call void @llvm.lifetime.start.p0(i64 8, ptr %21) #8
  %33 = load ptr, ptr %9, align 8, !tbaa !4
  %34 = load ptr, ptr %16, align 8, !tbaa !9
  %35 = load ptr, ptr %17, align 8, !tbaa !61
  %36 = load ptr, ptr %16, align 8, !tbaa !9
  %37 = getelementptr inbounds nuw %struct.pac_s, ptr %36, i32 0, i32 1
  %38 = load ptr, ptr %11, align 8, !tbaa !63
  %39 = load i64, ptr %19, align 8, !tbaa !18
  %40 = load i8, ptr %14, align 1, !tbaa !53, !range !54, !noundef !55
  %41 = trunc i8 %40 to i1
  %42 = call ptr @je_ecache_alloc(ptr noundef %33, ptr noundef %34, ptr noundef %35, ptr noundef %37, ptr noundef %38, i64 noundef %39, i64 noundef 4096, i1 noundef zeroext %41, i1 noundef zeroext false)
  store ptr %42, ptr %21, align 8, !tbaa !63
  %43 = load ptr, ptr %21, align 8, !tbaa !63
  %44 = icmp eq ptr %43, null
  br i1 %44, label %45, label %56

45:                                               ; preds = %32
  %46 = load ptr, ptr %9, align 8, !tbaa !4
  %47 = load ptr, ptr %16, align 8, !tbaa !9
  %48 = load ptr, ptr %17, align 8, !tbaa !61
  %49 = load ptr, ptr %16, align 8, !tbaa !9
  %50 = getelementptr inbounds nuw %struct.pac_s, ptr %49, i32 0, i32 2
  %51 = load ptr, ptr %11, align 8, !tbaa !63
  %52 = load i64, ptr %19, align 8, !tbaa !18
  %53 = load i8, ptr %14, align 1, !tbaa !53, !range !54, !noundef !55
  %54 = trunc i8 %53 to i1
  %55 = call ptr @je_ecache_alloc(ptr noundef %46, ptr noundef %47, ptr noundef %48, ptr noundef %50, ptr noundef %51, i64 noundef %52, i64 noundef 4096, i1 noundef zeroext %54, i1 noundef zeroext false)
  store ptr %55, ptr %21, align 8, !tbaa !63
  br label %56

56:                                               ; preds = %45, %32
  %57 = load ptr, ptr %21, align 8, !tbaa !63
  %58 = icmp eq ptr %57, null
  br i1 %58, label %59, label %71

59:                                               ; preds = %56
  %60 = load ptr, ptr %9, align 8, !tbaa !4
  %61 = load ptr, ptr %16, align 8, !tbaa !9
  %62 = load ptr, ptr %17, align 8, !tbaa !61
  %63 = load ptr, ptr %16, align 8, !tbaa !9
  %64 = getelementptr inbounds nuw %struct.pac_s, ptr %63, i32 0, i32 3
  %65 = load ptr, ptr %11, align 8, !tbaa !63
  %66 = load i64, ptr %19, align 8, !tbaa !18
  %67 = load i8, ptr %14, align 1, !tbaa !53, !range !54, !noundef !55
  %68 = trunc i8 %67 to i1
  %69 = call ptr @je_ecache_alloc_grow(ptr noundef %60, ptr noundef %61, ptr noundef %62, ptr noundef %64, ptr noundef %65, i64 noundef %66, i64 noundef 4096, i1 noundef zeroext %68, i1 noundef zeroext false)
  store ptr %69, ptr %21, align 8, !tbaa !63
  %70 = load i64, ptr %19, align 8, !tbaa !18
  store i64 %70, ptr %18, align 8, !tbaa !18
  br label %71

71:                                               ; preds = %59, %56
  %72 = load ptr, ptr %21, align 8, !tbaa !63
  %73 = icmp eq ptr %72, null
  br i1 %73, label %74, label %75

74:                                               ; preds = %71
  store i1 true, ptr %8, align 1
  store i32 1, ptr %20, align 4
  br label %98

75:                                               ; preds = %71
  %76 = load ptr, ptr %9, align 8, !tbaa !4
  %77 = load ptr, ptr %16, align 8, !tbaa !9
  %78 = load ptr, ptr %17, align 8, !tbaa !61
  %79 = load ptr, ptr %11, align 8, !tbaa !63
  %80 = load ptr, ptr %21, align 8, !tbaa !63
  %81 = call zeroext i1 @je_extent_merge_wrapper(ptr noundef %76, ptr noundef %77, ptr noundef %78, ptr noundef %79, ptr noundef %80)
  br i1 %81, label %82, label %87

82:                                               ; preds = %75
  %83 = load ptr, ptr %9, align 8, !tbaa !4
  %84 = load ptr, ptr %16, align 8, !tbaa !9
  %85 = load ptr, ptr %17, align 8, !tbaa !61
  %86 = load ptr, ptr %21, align 8, !tbaa !63
  call void @je_extent_dalloc_wrapper(ptr noundef %83, ptr noundef %84, ptr noundef %85, ptr noundef %86)
  store i1 true, ptr %8, align 1
  store i32 1, ptr %20, align 4
  br label %98

87:                                               ; preds = %75
  %88 = load i64, ptr %18, align 8, !tbaa !18
  %89 = icmp ugt i64 %88, 0
  br i1 %89, label %90, label %97

90:                                               ; preds = %87
  %91 = load ptr, ptr %16, align 8, !tbaa !9
  %92 = getelementptr inbounds nuw %struct.pac_s, ptr %91, i32 0, i32 14
  %93 = load ptr, ptr %92, align 8, !tbaa !42
  %94 = getelementptr inbounds nuw %struct.pac_stats_s, ptr %93, i32 0, i32 3
  %95 = load i64, ptr %18, align 8, !tbaa !18
  %96 = call i64 @atomic_fetch_add_zu(ptr noundef %94, i64 noundef %95, i32 noundef 0)
  br label %97

97:                                               ; preds = %90, %87
  store i1 false, ptr %8, align 1
  store i32 1, ptr %20, align 4
  br label %98

98:                                               ; preds = %97, %82, %74
  call void @llvm.lifetime.end.p0(i64 8, ptr %21) #8
  br label %99

99:                                               ; preds = %98, %31
  call void @llvm.lifetime.end.p0(i64 8, ptr %19) #8
  call void @llvm.lifetime.end.p0(i64 8, ptr %18) #8
  call void @llvm.lifetime.end.p0(i64 8, ptr %17) #8
  call void @llvm.lifetime.end.p0(i64 8, ptr %16) #8
  %100 = load i1, ptr %8, align 1
  ret i1 %100
}