; Function Attrs: nounwind uwtable
define internal noundef zeroext i1 @pac_expand_impl(ptr noundef %0, ptr noundef %1, ptr noundef %2, i64 noundef %3, i64 noundef %4, i1 noundef zeroext %5, ptr readnone captures(none) %6) #0 {
  %8 = getelementptr i8, ptr %1, i64 58376
  %.val = load ptr, ptr %8, align 8, !tbaa !15
  %9 = tail call ptr @je_base_ehooks_get(ptr noundef %.val) #9
  %10 = sub i64 %4, %3
  %11 = getelementptr inbounds nuw i8, ptr %9, i64 8
  %12 = load atomic i64, ptr %11 acquire, align 8
  %.0.i.i.i = inttoptr i64 %12 to ptr
  %13 = getelementptr inbounds nuw i8, ptr %.0.i.i.i, i64 64
  %14 = load ptr, ptr %13, align 8, !tbaa !46
  %15 = icmp eq ptr %14, null
  br i1 %15, label %.thread57, label %16

16:                                               ; preds = %7
  %17 = getelementptr inbounds nuw i8, ptr %1, i64 56
  %18 = tail call ptr @je_ecache_alloc(ptr noundef %0, ptr noundef nonnull %1, ptr noundef nonnull %9, ptr noundef nonnull %17, ptr noundef %2, i64 noundef %10, i64 noundef 4096, i1 noundef zeroext %5, i1 noundef zeroext false) #9
  %19 = icmp eq ptr %18, null
  br i1 %19, label %20, label %.thread52

20:                                               ; preds = %16
  %21 = getelementptr inbounds nuw i8, ptr %1, i64 19496
  %22 = tail call ptr @je_ecache_alloc(ptr noundef %0, ptr noundef nonnull %1, ptr noundef nonnull %9, ptr noundef nonnull %21, ptr noundef %2, i64 noundef %10, i64 noundef 4096, i1 noundef zeroext %5, i1 noundef zeroext false) #9
  %23 = icmp eq ptr %22, null
  br i1 %23, label %24, label %.thread52

24:                                               ; preds = %20
  %25 = getelementptr inbounds nuw i8, ptr %1, i64 38936
  %26 = tail call ptr @je_ecache_alloc_grow(ptr noundef %0, ptr noundef nonnull %1, ptr noundef nonnull %9, ptr noundef nonnull %25, ptr noundef %2, i64 noundef %10, i64 noundef 4096, i1 noundef zeroext %5, i1 noundef zeroext false) #9
  %27 = icmp eq ptr %26, null
  br i1 %27, label %.thread57, label %28

28:                                               ; preds = %24
  %29 = tail call zeroext i1 @je_extent_merge_wrapper(ptr noundef %0, ptr noundef nonnull %1, ptr noundef nonnull %9, ptr noundef %2, ptr noundef nonnull %26) #9
  br i1 %29, label %31, label %32

.thread52:                                        ; preds = %16, %20
  %.1.ph = phi ptr [ %22, %20 ], [ %18, %16 ]
  %30 = tail call zeroext i1 @je_extent_merge_wrapper(ptr noundef %0, ptr noundef nonnull %1, ptr noundef nonnull %9, ptr noundef %2, ptr noundef nonnull %.1.ph) #9
  br i1 %30, label %31, label %.thread57

31:                                               ; preds = %.thread52, %28
  %.15155 = phi ptr [ %.1.ph, %.thread52 ], [ %26, %28 ]
  tail call void @je_extent_dalloc_wrapper(ptr noundef %0, ptr noundef nonnull %1, ptr noundef nonnull %9, ptr noundef nonnull %.15155) #9
  br label %.thread57

32:                                               ; preds = %28
  %.not = icmp eq i64 %4, %3
  br i1 %.not, label %.thread57, label %33

33:                                               ; preds = %32
  %34 = getelementptr inbounds nuw i8, ptr %1, i64 62224
  %35 = load ptr, ptr %34, align 8, !tbaa !34
  %36 = getelementptr inbounds nuw i8, ptr %35, i64 56
  %37 = atomicrmw add ptr %36, i64 %10 monotonic, align 8
  br label %.thread57

.thread57:                                        ; preds = %.thread52, %31, %24, %33, %32, %7
  %.042 = phi i1 [ true, %7 ], [ true, %31 ], [ true, %24 ], [ false, %33 ], [ false, %32 ], [ false, %.thread52 ]
  ret i1 %.042
}